; ModuleID = '58/274.c'
source_filename = "58/274.c"
target datalayout = "e-m:e-p270:32:32-p271:32:32-p272:64:64-i64:64-f80:128-n8:16:32:64-S128"
target triple = "x86_64-pc-linux-gnu"

@.str = private unnamed_addr constant [3 x i8] c"%d\00", align 1
@__const.main.a = private unnamed_addr constant [30 x i8] c"abcdefghijklmnopqrstuvwxyz_\00\00\00", align 16
@.str.1 = private unnamed_addr constant [3 x i8] c"0\0A\00", align 1
@.str.2 = private unnamed_addr constant [3 x i8] c"1\0A\00", align 1

; Function Attrs: noinline nounwind uwtable
define dso_local i32 @main() #0 {
  %1 = alloca i32, align 4
  %2 = alloca i32, align 4
  %3 = alloca i32, align 4
  %4 = alloca i32, align 4
  %5 = alloca i32, align 4
  %6 = alloca i32, align 4
  %7 = alloca [30 x i8], align 16
  %8 = alloca [1000 x [1000 x i8]], align 16
  store i32 0, i32* %1, align 4
  store i32 0, i32* %6, align 4
  %9 = call i32 (i8*, ...) @__isoc99_scanf(i8* getelementptr inbounds ([3 x i8], [3 x i8]* @.str, i64 0, i64 0), i32* %2)
  %10 = bitcast [30 x i8]* %7 to i8*
  call void @llvm.memcpy.p0i8.p0i8.i64(i8* align 16 %10, i8* align 16 getelementptr inbounds ([30 x i8], [30 x i8]* @__const.main.a, i32 0, i32 0), i64 30, i1 false)
  %11 = getelementptr inbounds [1000 x [1000 x i8]], [1000 x [1000 x i8]]* %8, i64 0, i64 1
  %12 = getelementptr inbounds [1000 x i8], [1000 x i8]* %11, i64 0, i64 0
  %13 = call i32 (i8*, ...) bitcast (i32 (...)* @gets to i32 (i8*, ...)*)(i8* %12)
  store i32 1, i32* %3, align 4
  br label %14

14:                                               ; preds = %160, %0
  %15 = load i32, i32* %3, align 4
  %16 = load i32, i32* %2, align 4
  %17 = icmp sle i32 %15, %16
  br i1 %17, label %18, label %163

18:                                               ; preds = %14
  %19 = load i32, i32* %3, align 4
  %20 = sext i32 %19 to i64
  %21 = getelementptr inbounds [1000 x [1000 x i8]], [1000 x [1000 x i8]]* %8, i64 0, i64 %20
  %22 = getelementptr inbounds [1000 x i8], [1000 x i8]* %21, i64 0, i64 0
  %23 = call i32 (i8*, ...) bitcast (i32 (...)* @gets to i32 (i8*, ...)*)(i8* %22)
  store i32 0, i32* %6, align 4
  store i32 0, i32* %5, align 4
  br label %24

24:                                               ; preds = %107, %18
  %25 = load i32, i32* %3, align 4
  %26 = sext i32 %25 to i64
  %27 = getelementptr inbounds [1000 x [1000 x i8]], [1000 x [1000 x i8]]* %8, i64 0, i64 %26
  %28 = load i32, i32* %5, align 4
  %29 = sext i32 %28 to i64
  %30 = getelementptr inbounds [1000 x i8], [1000 x i8]* %27, i64 0, i64 %29
  %31 = load i8, i8* %30, align 1
  %32 = sext i8 %31 to i32
  %33 = icmp eq i32 %32, 32
  br i1 %33, label %94, label %34

34:                                               ; preds = %24
  %35 = load i32, i32* %3, align 4
  %36 = sext i32 %35 to i64
  %37 = getelementptr inbounds [1000 x [1000 x i8]], [1000 x [1000 x i8]]* %8, i64 0, i64 %36
  %38 = load i32, i32* %5, align 4
  %39 = sext i32 %38 to i64
  %40 = getelementptr inbounds [1000 x i8], [1000 x i8]* %37, i64 0, i64 %39
  %41 = load i8, i8* %40, align 1
  %42 = sext i8 %41 to i32
  %43 = icmp eq i32 %42, 46
  br i1 %43, label %94, label %44

44:                                               ; preds = %34
  %45 = load i32, i32* %3, align 4
  %46 = sext i32 %45 to i64
  %47 = getelementptr inbounds [1000 x [1000 x i8]], [1000 x [1000 x i8]]* %8, i64 0, i64 %46
  %48 = load i32, i32* %5, align 4
  %49 = sext i32 %48 to i64
  %50 = getelementptr inbounds [1000 x i8], [1000 x i8]* %47, i64 0, i64 %49
  %51 = load i8, i8* %50, align 1
  %52 = sext i8 %51 to i32
  %53 = icmp eq i32 %52, 64
  br i1 %53, label %94, label %54

54:                                               ; preds = %44
  %55 = load i32, i32* %3, align 4
  %56 = sext i32 %55 to i64
  %57 = getelementptr inbounds [1000 x [1000 x i8]], [1000 x [1000 x i8]]* %8, i64 0, i64 %56
  %58 = load i32, i32* %5, align 4
  %59 = sext i32 %58 to i64
  %60 = getelementptr inbounds [1000 x i8], [1000 x i8]* %57, i64 0, i64 %59
  %61 = load i8, i8* %60, align 1
  %62 = sext i8 %61 to i32
  %63 = icmp eq i32 %62, 59
  br i1 %63, label %94, label %64

64:                                               ; preds = %54
  %65 = load i32, i32* %3, align 4
  %66 = sext i32 %65 to i64
  %67 = getelementptr inbounds [1000 x [1000 x i8]], [1000 x [1000 x i8]]* %8, i64 0, i64 %66
  %68 = load i32, i32* %5, align 4
  %69 = sext i32 %68 to i64
  %70 = getelementptr inbounds [1000 x i8], [1000 x i8]* %67, i64 0, i64 %69
  %71 = load i8, i8* %70, align 1
  %72 = sext i8 %71 to i32
  %73 = icmp eq i32 %72, 45
  br i1 %73, label %94, label %74

74:                                               ; preds = %64
  %75 = load i32, i32* %3, align 4
  %76 = sext i32 %75 to i64
  %77 = getelementptr inbounds [1000 x [1000 x i8]], [1000 x [1000 x i8]]* %8, i64 0, i64 %76
  %78 = load i32, i32* %5, align 4
  %79 = sext i32 %78 to i64
  %80 = getelementptr inbounds [1000 x i8], [1000 x i8]* %77, i64 0, i64 %79
  %81 = load i8, i8* %80, align 1
  %82 = sext i8 %81 to i32
  %83 = icmp eq i32 %82, 61
  br i1 %83, label %94, label %84

84:                                               ; preds = %74
  %85 = load i32, i32* %3, align 4
  %86 = sext i32 %85 to i64
  %87 = getelementptr inbounds [1000 x [1000 x i8]], [1000 x [1000 x i8]]* %8, i64 0, i64 %86
  %88 = load i32, i32* %5, align 4
  %89 = sext i32 %88 to i64
  %90 = getelementptr inbounds [1000 x i8], [1000 x i8]* %87, i64 0, i64 %89
  %91 = load i8, i8* %90, align 1
  %92 = sext i8 %91 to i32
  %93 = icmp eq i32 %92, 43
  br i1 %93, label %94, label %95

94:                                               ; preds = %84, %74, %64, %54, %44, %34, %24
  store i32 5, i32* %6, align 4
  br label %95

95:                                               ; preds = %94, %84
  %96 = load i32, i32* %3, align 4
  %97 = sext i32 %96 to i64
  %98 = getelementptr inbounds [1000 x [1000 x i8]], [1000 x [1000 x i8]]* %8, i64 0, i64 %97
  %99 = load i32, i32* %5, align 4
  %100 = sext i32 %99 to i64
  %101 = getelementptr inbounds [1000 x i8], [1000 x i8]* %98, i64 0, i64 %100
  %102 = load i8, i8* %101, align 1
  %103 = sext i8 %102 to i32
  %104 = icmp eq i32 %103, 0
  br i1 %104, label %105, label %106

105:                                              ; preds = %95
  br label %110

106:                                              ; preds = %95
  br label %107

107:                                              ; preds = %106
  %108 = load i32, i32* %5, align 4
  %109 = add nsw i32 %108, 1
  store i32 %109, i32* %5, align 4
  br label %24

110:                                              ; preds = %105
  %111 = load i32, i32* %6, align 4
  %112 = icmp eq i32 %111, 5
  br i1 %112, label %113, label %115

113:                                              ; preds = %110
  %114 = call i32 (i8*, ...) @printf(i8* getelementptr inbounds ([3 x i8], [3 x i8]* @.str.1, i64 0, i64 0))
  br label %160

115:                                              ; preds = %110
  store i32 0, i32* %4, align 4
  br label %116

116:                                              ; preds = %151, %115
  %117 = load i32, i32* %4, align 4
  %118 = icmp sle i32 %117, 26
  br i1 %118, label %119, label %154

119:                                              ; preds = %116
  %120 = load i32, i32* %3, align 4
  %121 = sext i32 %120 to i64
  %122 = getelementptr inbounds [1000 x [1000 x i8]], [1000 x [1000 x i8]]* %8, i64 0, i64 %121
  %123 = getelementptr inbounds [1000 x i8], [1000 x i8]* %122, i64 0, i64 0
  %124 = load i8, i8* %123, align 8
  %125 = sext i8 %124 to i32
  %126 = load i32, i32* %4, align 4
  %127 = sext i32 %126 to i64
  %128 = getelementptr inbounds [30 x i8], [30 x i8]* %7, i64 0, i64 %127
  %129 = load i8, i8* %128, align 1
  %130 = sext i8 %129 to i32
  %131 = icmp eq i32 %125, %130
  br i1 %131, label %146, label %132

132:                                              ; preds = %119
  %133 = load i32, i32* %3, align 4
  %134 = sext i32 %133 to i64
  %135 = getelementptr inbounds [1000 x [1000 x i8]], [1000 x [1000 x i8]]* %8, i64 0, i64 %134
  %136 = getelementptr inbounds [1000 x i8], [1000 x i8]* %135, i64 0, i64 0
  %137 = load i8, i8* %136, align 8
  %138 = sext i8 %137 to i32
  %139 = load i32, i32* %4, align 4
  %140 = sext i32 %139 to i64
  %141 = getelementptr inbounds [30 x i8], [30 x i8]* %7, i64 0, i64 %140
  %142 = load i8, i8* %141, align 1
  %143 = sext i8 %142 to i32
  %144 = sub nsw i32 %143, 32
  %145 = icmp eq i32 %138, %144
  br i1 %145, label %146, label %150

146:                                              ; preds = %132, %119
  %147 = call i32 (i8*, ...) @printf(i8* getelementptr inbounds ([3 x i8], [3 x i8]* @.str.2, i64 0, i64 0))
  %148 = load i32, i32* %6, align 4
  %149 = add nsw i32 %148, 1
  store i32 %149, i32* %6, align 4
  br label %150

150:                                              ; preds = %146, %132
  br label %151

151:                                              ; preds = %150
  %152 = load i32, i32* %4, align 4
  %153 = add nsw i32 %152, 1
  store i32 %153, i32* %4, align 4
  br label %116

154:                                              ; preds = %116
  %155 = load i32, i32* %6, align 4
  %156 = icmp eq i32 %155, 0
  br i1 %156, label %157, label %159

157:                                              ; preds = %154
  %158 = call i32 (i8*, ...) @printf(i8* getelementptr inbounds ([3 x i8], [3 x i8]* @.str.1, i64 0, i64 0))
  br label %159

159:                                              ; preds = %157, %154
  br label %160

160:                                              ; preds = %159, %113
  %161 = load i32, i32* %3, align 4
  %162 = add nsw i32 %161, 1
  store i32 %162, i32* %3, align 4
  br label %14

163:                                              ; preds = %14
  %164 = call i32 @getchar()
  %165 = call i32 @getchar()
  %166 = call i32 @getchar()
  %167 = call i32 @getchar()
  %168 = call i32 @getchar()
  %169 = call i32 @getchar()
  %170 = load i32, i32* %1, align 4
  ret i32 %170
}

declare dso_local i32 @__isoc99_scanf(i8*, ...) #1

; Function Attrs: argmemonly nounwind willreturn
declare void @llvm.memcpy.p0i8.p0i8.i64(i8* noalias nocapture writeonly, i8* noalias nocapture readonly, i64, i1 immarg) #2

declare dso_local i32 @gets(...) #1

declare dso_local i32 @printf(i8*, ...) #1

declare dso_local i32 @getchar() #1


!llvm.module.flags = !{!0}
!llvm.ident = !{!1}

!0 = !{i32 1, !"wchar_size", i32 4}
!1 = !{!"clang version 10.0.0-4ubuntu1 "}
